Certificate:
    Data:
        Version: 3 (0x2)
        Serial Number: 4 (0x4)
    Signature Algorithm: sha256WithRSAEncryption
        Issuer: C=BR, ST=Rio, L=Rio, O=PUC, OU=DI, CN=AC INF1416/emailAddress=ca@di.puc-rio.br
        Validity
            Not Before: Apr 11 20:56:06 2017 GMT
            Not After : Apr 11 20:56:06 2018 GMT
        Subject: C=BR, ST=Rio, O=PUC, OU=DI, CN=Usuario 02/emailAddress=user02@inf1416.puc-rio.br
        Subject Public Key Info:
            Public Key Algorithm: rsaEncryption
                Public-Key: (2048 bit)
                Modulus:
                    00:b4:25:03:5e:8d:84:ea:f1:36:67:1b:d0:b9:7f:
                    3a:01:97:c0:03:bb:70:44:bb:c9:06:33:fd:ac:63:
                    89:47:65:a5:ac:be:8f:15:cf:44:d6:a3:35:f2:6e:
                    f2:49:d0:16:9f:98:20:6f:bd:cb:2c:bf:94:40:94:
                    66:51:e0:8a:c5:62:0a:e6:cb:b6:95:6e:b3:43:e4:
                    59:20:11:6b:0e:3c:94:17:2f:f0:91:c5:df:4b:e2:
                    a0:b6:a2:e7:de:7f:6d:3b:b0:2c:64:65:3b:30:1c:
                    f2:5c:11:7e:4a:06:30:c1:ab:9e:11:5b:5d:0e:d2:
                    89:e5:3f:bd:93:03:e1:e5:6d:7c:19:57:f4:6c:f6:
                    bf:d6:7f:65:28:12:50:02:83:a9:ae:79:81:d3:d0:
                    ce:e1:45:d8:87:57:92:c3:94:db:4c:32:23:da:43:
                    5f:fc:5a:5e:c0:4b:7e:f7:2f:cd:c7:ab:d8:a6:a4:
                    4d:a3:ef:17:52:13:ce:a7:38:8f:f5:c8:ac:1a:e1:
                    ff:72:f5:65:c2:b8:e3:3c:7f:7e:b0:16:73:27:cb:
                    29:3e:a7:0f:bd:1e:a8:06:ab:2e:03:d2:46:5d:08:
                    cf:af:53:0c:d2:e7:05:87:66:15:23:76:c6:76:76:
                    d4:42:ab:0c:22:f4:3b:cc:91:ac:63:a7:c4:a7:65:
                    29:d9
                Exponent: 65537 (0x10001)
        X509v3 extensions:
            X509v3 Basic Constraints: 
                CA:FALSE
            Netscape Comment: 
                OpenSSL Generated Certificate
            X509v3 Subject Key Identifier: 
                C3:26:DF:A1:E4:BF:8D:67:AA:FC:14:74:94:90:DE:73:CF:6F:09:B8
            X509v3 Authority Key Identifier: 
                keyid:11:8E:EB:3C:23:2D:EB:68:11:7E:43:8D:D4:4F:07:48:25:F5:2B:26

    Signature Algorithm: sha256WithRSAEncryption
         95:bd:cf:f6:0d:fc:3f:32:f0:fb:7b:42:54:8b:26:4d:3e:3f:
         92:10:7f:1e:c1:39:51:2e:06:65:62:65:1b:4a:fb:47:82:4c:
         29:fd:8b:e8:e5:42:46:5f:b6:f4:73:f6:eb:f8:49:fb:13:f2:
         1a:98:fc:c1:40:16:fd:3f:b6:d6:60:e9:8c:c7:d0:88:a8:88:
         25:cb:44:37:f1:de:43:07:b7:5c:3c:e9:bc:4a:6e:8e:22:63:
         9a:6c:d1:06:ea:5c:d4:20:da:ba:d7:56:cc:bf:79:d1:8b:c6:
         08:39:c8:d2:61:d2:c6:4e:fe:19:66:bb:ff:2e:22:af:40:4e:
         49:f8:ee:d3:a7:65:ef:6f:7f:76:04:e8:a2:ef:99:fa:3a:0c:
         69:fd:da:1c:fe:30:d7:63:62:0a:f3:f9:13:65:03:89:32:19:
         3b:2c:aa:e9:92:18:f4:37:d6:9a:25:95:17:fa:98:01:21:c3:
         20:e9:0c:41:18:9a:93:ed:9e:f0:9e:d5:72:25:78:96:ab:7e:
         86:33:45:cf:e6:87:27:f0:31:ee:24:e8:df:6d:c2:1f:3c:d8:
         12:a7:fe:52:21:f2:01:3c:36:1e:18:63:63:2e:a6:4b:d3:7b:
         c4:ed:a5:35:b1:5c:2f:a0:e4:b9:e7:5e:0f:46:46:67:08:8e:
         bd:93:25:5b
-----BEGIN CERTIFICATE-----
MIID5TCCAs2gAwIBAgIBBDANBgkqhkiG9w0BAQsFADB6MQswCQYDVQQGEwJCUjEM
MAoGA1UECAwDUmlvMQwwCgYDVQQHDANSaW8xDDAKBgNVBAoMA1BVQzELMAkGA1UE
CwwCREkxEzARBgNVBAMMCkFDIElORjE0MTYxHzAdBgkqhkiG9w0BCQEWEGNhQGRp
LnB1Yy1yaW8uYnIwHhcNMTcwNDExMjA1NjA2WhcNMTgwNDExMjA1NjA2WjB1MQsw
CQYDVQQGEwJCUjEMMAoGA1UECAwDUmlvMQwwCgYDVQQKDANQVUMxCzAJBgNVBAsM
AkRJMRMwEQYDVQQDDApVc3VhcmlvIDAyMSgwJgYJKoZIhvcNAQkBFhl1c2VyMDJA
aW5mMTQxNi5wdWMtcmlvLmJyMIIBIjANBgkqhkiG9w0BAQEFAAOCAQ8AMIIBCgKC
AQEAtCUDXo2E6vE2ZxvQuX86AZfAA7twRLvJBjP9rGOJR2WlrL6PFc9E1qM18m7y
SdAWn5ggb73LLL+UQJRmUeCKxWIK5su2lW6zQ+RZIBFrDjyUFy/wkcXfS+KgtqLn
3n9tO7AsZGU7MBzyXBF+SgYwwaueEVtdDtKJ5T+9kwPh5W18GVf0bPa/1n9lKBJQ
AoOprnmB09DO4UXYh1eSw5TbTDIj2kNf/FpewEt+9y/Nx6vYpqRNo+8XUhPOpziP
9cisGuH/cvVlwrjjPH9+sBZzJ8spPqcPvR6oBqsuA9JGXQjPr1MM0ucFh2YVI3bG
dnbUQqsMIvQ7zJGsY6fEp2Up2QIDAQABo3sweTAJBgNVHRMEAjAAMCwGCWCGSAGG
+EIBDQQfFh1PcGVuU1NMIEdlbmVyYXRlZCBDZXJ0aWZpY2F0ZTAdBgNVHQ4EFgQU
wybfoeS/jWeq/BR0lJDec89vCbgwHwYDVR0jBBgwFoAUEY7rPCMt62gRfkON1E8H
SCX1KyYwDQYJKoZIhvcNAQELBQADggEBAJW9z/YN/D8y8Pt7QlSLJk0+P5IQfx7B
OVEuBmViZRtK+0eCTCn9i+jlQkZftvRz9uv4SfsT8hqY/MFAFv0/ttZg6YzH0Iio
iCXLRDfx3kMHt1w86bxKbo4iY5ps0QbqXNQg2rrXVsy/edGLxgg5yNJh0sZO/hlm
u/8uIq9ATkn47tOnZe9vf3YE6KLvmfo6DGn92hz+MNdjYgrz+RNlA4kyGTssqumS
GPQ31pollRf6mAEhwyDpDEEYmpPtnvCe1XIleJarfoYzRc/mhyfwMe4k6N9twh88
2BKn/lIh8gE8Nh4YY2MupkvTe8TtpTWxXC+g5LnnXg9GRmcIjr2TJVs=
-----END CERTIFICATE-----
