Certificate:
    Data:
        Version: 3 (0x2)
        Serial Number: 6 (0x6)
    Signature Algorithm: sha256WithRSAEncryption
        Issuer: C=BR, ST=Rio, L=Rio, O=PUC, OU=DI, CN=AC INF1416/emailAddress=ca@di.puc-rio.br
        Validity
            Not Before: Apr 11 20:56:48 2017 GMT
            Not After : Apr 11 20:56:48 2018 GMT
        Subject: C=BR, ST=Rio, O=PUC, OU=DI, CN=Usuario 04/emailAddress=user04@inf1416.puc-rio.br
        Subject Public Key Info:
            Public Key Algorithm: rsaEncryption
                Public-Key: (2048 bit)
                Modulus:
                    00:c5:3c:51:51:ab:45:d2:ab:77:f4:0c:e8:2b:ee:
                    d1:8d:5e:a7:11:29:b1:c9:04:d6:05:2b:00:69:91:
                    ab:2c:2b:68:f9:9c:f9:ae:fc:39:ff:c7:d1:a3:ef:
                    54:b9:8c:1d:71:80:4f:6e:02:8b:06:a4:24:6a:ba:
                    4e:2f:61:aa:74:7a:94:b3:2c:87:aa:aa:4e:2a:00:
                    5c:f4:7c:bd:e7:83:bc:a1:ab:b5:fd:6d:2d:8b:b8:
                    f1:3e:e9:2e:bf:44:01:38:56:b0:02:b7:7c:89:8b:
                    9d:77:3b:c6:1d:f0:91:41:b2:db:6a:6b:d2:df:e8:
                    5e:15:38:6e:cd:65:6f:bc:55:de:c0:30:f4:55:d9:
                    c8:f4:3a:ba:21:1d:7b:30:41:2f:4a:71:e4:1d:ce:
                    16:55:1a:7e:96:75:aa:1e:79:09:31:09:6b:39:d0:
                    16:85:d1:7d:d0:ec:5c:19:43:0d:93:6b:5b:59:d6:
                    78:2f:c0:bb:60:7b:07:53:f9:42:bb:d2:3d:7e:8f:
                    8e:ac:dd:b7:7e:d0:47:69:40:f2:e0:2f:e2:bb:08:
                    b3:82:f0:86:61:a4:57:34:96:3b:fc:85:68:76:4d:
                    12:97:33:82:45:73:91:e3:22:e1:6e:48:45:9e:1a:
                    4e:4d:fa:5b:98:61:01:a4:cd:83:eb:74:53:15:db:
                    73:09
                Exponent: 65537 (0x10001)
        X509v3 extensions:
            X509v3 Basic Constraints: 
                CA:FALSE
            Netscape Comment: 
                OpenSSL Generated Certificate
            X509v3 Subject Key Identifier: 
                2C:F1:EC:48:5C:39:B4:FE:7C:79:88:D6:E0:08:64:6B:0D:1C:89:A9
            X509v3 Authority Key Identifier: 
                keyid:11:8E:EB:3C:23:2D:EB:68:11:7E:43:8D:D4:4F:07:48:25:F5:2B:26

    Signature Algorithm: sha256WithRSAEncryption
         d2:dd:87:99:92:67:d6:33:eb:95:36:c4:99:c2:83:7c:5a:86:
         0d:41:14:e1:31:d0:bc:88:93:90:0e:c5:5c:9f:0a:c8:51:9a:
         6e:18:36:93:42:c0:c1:68:0b:87:df:04:79:c2:fd:8e:27:ce:
         2e:5f:da:6d:d9:40:2c:53:db:88:b9:30:d8:b0:14:f3:fd:8c:
         4c:fc:83:99:aa:60:31:61:28:2c:bf:b4:24:48:30:12:81:94:
         10:5a:27:c2:a0:ee:eb:4e:25:c8:3c:29:ec:39:14:1c:2c:3f:
         b3:3a:d3:a7:6d:68:e3:6d:92:67:f0:c6:16:1a:7a:1d:83:15:
         77:a6:cf:25:37:5b:86:e6:0a:61:f1:6e:dc:08:4e:37:9d:e8:
         6c:f1:c1:5b:33:bb:d8:d7:cb:22:b5:93:a8:e1:4f:9c:76:58:
         03:8b:5d:79:3d:32:2e:90:76:6a:51:64:6b:02:8b:99:94:7e:
         8e:2f:e4:c9:68:fd:33:51:90:6c:b7:0c:fc:26:fe:f4:b7:17:
         be:d2:54:7e:4c:ad:c7:ab:8b:fd:ec:39:58:9a:fd:c6:25:6f:
         13:2e:97:8c:1d:a9:91:78:c2:12:e8:a3:6c:30:94:94:77:8c:
         60:e4:20:c5:f1:76:76:e1:dd:6e:63:c5:f1:c1:04:e9:c1:47:
         12:51:e9:dd
-----BEGIN CERTIFICATE-----
MIID5TCCAs2gAwIBAgIBBjANBgkqhkiG9w0BAQsFADB6MQswCQYDVQQGEwJCUjEM
MAoGA1UECAwDUmlvMQwwCgYDVQQHDANSaW8xDDAKBgNVBAoMA1BVQzELMAkGA1UE
CwwCREkxEzARBgNVBAMMCkFDIElORjE0MTYxHzAdBgkqhkiG9w0BCQEWEGNhQGRp
LnB1Yy1yaW8uYnIwHhcNMTcwNDExMjA1NjQ4WhcNMTgwNDExMjA1NjQ4WjB1MQsw
CQYDVQQGEwJCUjEMMAoGA1UECAwDUmlvMQwwCgYDVQQKDANQVUMxCzAJBgNVBAsM
AkRJMRMwEQYDVQQDDApVc3VhcmlvIDA0MSgwJgYJKoZIhvcNAQkBFhl1c2VyMDRA
aW5mMTQxNi5wdWMtcmlvLmJyMIIBIjANBgkqhkiG9w0BAQEFAAOCAQ8AMIIBCgKC
AQEAxTxRUatF0qt39AzoK+7RjV6nESmxyQTWBSsAaZGrLCto+Zz5rvw5/8fRo+9U
uYwdcYBPbgKLBqQkarpOL2GqdHqUsyyHqqpOKgBc9Hy954O8oau1/W0ti7jxPuku
v0QBOFawArd8iYuddzvGHfCRQbLbamvS3+heFThuzWVvvFXewDD0VdnI9Dq6IR17
MEEvSnHkHc4WVRp+lnWqHnkJMQlrOdAWhdF90OxcGUMNk2tbWdZ4L8C7YHsHU/lC
u9I9fo+OrN23ftBHaUDy4C/iuwizgvCGYaRXNJY7/IVodk0SlzOCRXOR4yLhbkhF
nhpOTfpbmGEBpM2D63RTFdtzCQIDAQABo3sweTAJBgNVHRMEAjAAMCwGCWCGSAGG
+EIBDQQfFh1PcGVuU1NMIEdlbmVyYXRlZCBDZXJ0aWZpY2F0ZTAdBgNVHQ4EFgQU
LPHsSFw5tP58eYjW4Ahkaw0ciakwHwYDVR0jBBgwFoAUEY7rPCMt62gRfkON1E8H
SCX1KyYwDQYJKoZIhvcNAQELBQADggEBANLdh5mSZ9Yz65U2xJnCg3xahg1BFOEx
0LyIk5AOxVyfCshRmm4YNpNCwMFoC4ffBHnC/Y4nzi5f2m3ZQCxT24i5MNiwFPP9
jEz8g5mqYDFhKCy/tCRIMBKBlBBaJ8Kg7utOJcg8Kew5FBwsP7M606dtaONtkmfw
xhYaeh2DFXemzyU3W4bmCmHxbtwITjed6GzxwVszu9jXyyK1k6jhT5x2WAOLXXk9
Mi6QdmpRZGsCi5mUfo4v5Mlo/TNRkGy3DPwm/vS3F77SVH5Mrceri/3sOVia/cYl
bxMul4wdqZF4whLoo2wwlJR3jGDkIMXxdnbh3W5jxfHBBOnBRxJR6d0=
-----END CERTIFICATE-----
